target datalayout = "e-m:e-p270:32:32-p271:32:32-p272:64:64-i64:64-i128:128-f80:128-n8:16:32:64-S128"
target triple = "x86_64-pc-linux-gnu"

%"struct.cv::gapi::fluid::Border" = type { i32, %"class.cv::Scalar_" }
%"class.cv::Scalar_" = type { %"class.cv::Vec" }
%"class.cv::Vec" = type { %"class.cv::Matx" }
%"class.cv::Matx" = type { [4 x double] }

; Function Attrs: inlinehint mustprogress nounwind uwtable
define internal noundef zeroext i1 @_ZN2cveqIdEEbRKNS_7Scalar_IT_EES5_(ptr noundef nonnull align 8 dereferenceable(32) %0, ptr noundef nonnull align 8 dereferenceable(32) %1) #5 {
  %3 = alloca ptr, align 8
  %4 = alloca ptr, align 8
  store ptr %0, ptr %3, align 8, !tbaa !14
  store ptr %1, ptr %4, align 8, !tbaa !14
  %5 = load ptr, ptr %3, align 8, !tbaa !14
  %6 = getelementptr inbounds nuw %"class.cv::Matx", ptr %5, i32 0, i32 0
  %7 = getelementptr inbounds [4 x double], ptr %6, i64 0, i64 0
  %8 = load double, ptr %7, align 8, !tbaa !16
  %9 = load ptr, ptr %4, align 8, !tbaa !14
  %10 = getelementptr inbounds nuw %"class.cv::Matx", ptr %9, i32 0, i32 0
  %11 = getelementptr inbounds [4 x double], ptr %10, i64 0, i64 0
  %12 = load double, ptr %11, align 8, !tbaa !16
  %13 = fcmp oeq double %8, %12
  br i1 %13, label %14, label %44

14:                                               ; preds = %2
  %15 = load ptr, ptr %3, align 8, !tbaa !14
  %16 = getelementptr inbounds nuw %"class.cv::Matx", ptr %15, i32 0, i32 0
  %17 = getelementptr inbounds [4 x double], ptr %16, i64 0, i64 1
  %18 = load double, ptr %17, align 8, !tbaa !16
  %19 = load ptr, ptr %4, align 8, !tbaa !14
  %20 = getelementptr inbounds nuw %"class.cv::Matx", ptr %19, i32 0, i32 0
  %21 = getelementptr inbounds [4 x double], ptr %20, i64 0, i64 1
  %22 = load double, ptr %21, align 8, !tbaa !16
  %23 = fcmp oeq double %18, %22
  br i1 %23, label %24, label %44

24:                                               ; preds = %14
  %25 = load ptr, ptr %3, align 8, !tbaa !14
  %26 = getelementptr inbounds nuw %"class.cv::Matx", ptr %25, i32 0, i32 0
  %27 = getelementptr inbounds [4 x double], ptr %26, i64 0, i64 2
  %28 = load double, ptr %27, align 8, !tbaa !16
  %29 = load ptr, ptr %4, align 8, !tbaa !14
  %30 = getelementptr inbounds nuw %"class.cv::Matx", ptr %29, i32 0, i32 0
  %31 = getelementptr inbounds [4 x double], ptr %30, i64 0, i64 2
  %32 = load double, ptr %31, align 8, !tbaa !16
  %33 = fcmp oeq double %28, %32
  br i1 %33, label %34, label %44

34:                                               ; preds = %24
  %35 = load ptr, ptr %3, align 8, !tbaa !14
  %36 = getelementptr inbounds nuw %"class.cv::Matx", ptr %35, i32 0, i32 0
  %37 = getelementptr inbounds [4 x double], ptr %36, i64 0, i64 3
  %38 = load double, ptr %37, align 8, !tbaa !16
  %39 = load ptr, ptr %4, align 8, !tbaa !14
  %40 = getelementptr inbounds nuw %"class.cv::Matx", ptr %39, i32 0, i32 0
  %41 = getelementptr inbounds [4 x double], ptr %40, i64 0, i64 3
  %42 = load double, ptr %41, align 8, !tbaa !16
  %43 = fcmp oeq double %38, %42
  br label %44

44:                                               ; preds = %34, %24, %14, %2
  %45 = phi i1 [ false, %24 ], [ false, %14 ], [ false, %2 ], [ %43, %34 ]
  ret i1 %45
}

; Function Attrs: mustprogress uwtable
define hidden noundef zeroext i1 @_ZN2cv4gapi5fluideqERKNS1_6BorderES4_(ptr noundef nonnull align 8 dereferenceable(40) %0, ptr noundef nonnull align 8 dereferenceable(40) %1) #4 {
  %3 = alloca ptr, align 8
  %4 = alloca ptr, align 8
  store ptr %0, ptr %3, align 8, !tbaa !3
  store ptr %1, ptr %4, align 8, !tbaa !3
  %5 = load ptr, ptr %3, align 8, !tbaa !3
  %6 = getelementptr inbounds nuw %"struct.cv::gapi::fluid::Border", ptr %5, i32 0, i32 0
  %7 = load i32, ptr %6, align 8, !tbaa !8
  %8 = load ptr, ptr %4, align 8, !tbaa !3
  %9 = getelementptr inbounds nuw %"struct.cv::gapi::fluid::Border", ptr %8, i32 0, i32 0
  %10 = load i32, ptr %9, align 8, !tbaa !8
  %11 = icmp eq i32 %7, %10
  br i1 %11, label %12, label %18

12:                                               ; preds = %2
  %13 = load ptr, ptr %3, align 8, !tbaa !3
  %14 = getelementptr inbounds nuw %"struct.cv::gapi::fluid::Border", ptr %13, i32 0, i32 1
  %15 = load ptr, ptr %4, align 8, !tbaa !3
  %16 = getelementptr inbounds nuw %"struct.cv::gapi::fluid::Border", ptr %15, i32 0, i32 1
  %17 = call noundef zeroext i1 @_ZN2cveqIdEEbRKNS_7Scalar_IT_EES5_(ptr noundef nonnull align 8 dereferenceable(32) %14, ptr noundef nonnull align 8 dereferenceable(32) %16)
  br label %18

18:                                               ; preds = %12, %2
  %19 = phi i1 [ false, %2 ], [ %17, %12 ]
  ret i1 %19
}