; Function Attrs: mustprogress nofree norecurse nosync nounwind willreturn memory(argmem: read) uwtable
define hidden noundef zeroext i1 @_ZN2cv4gapi5fluideqERKNS1_6BorderES4_(ptr noundef nonnull readonly align 8 captures(none) dereferenceable(40) %0, ptr noundef nonnull readonly align 8 captures(none) dereferenceable(40) %1) local_unnamed_addr #3 {
  %3 = load i32, ptr %0, align 8, !tbaa !3
  %4 = load i32, ptr %1, align 8, !tbaa !3
  %5 = icmp eq i32 %3, %4
  br i1 %5, label %6, label %_ZN2cveqIdEEbRKNS_7Scalar_IT_EES5_.exit

6:                                                ; preds = %2
  %7 = getelementptr inbounds nuw i8, ptr %0, i64 8
  %8 = getelementptr inbounds nuw i8, ptr %1, i64 8
  %9 = load double, ptr %7, align 8, !tbaa !11
  %10 = load double, ptr %8, align 8, !tbaa !11
  %11 = fcmp oeq double %9, %10
  br i1 %11, label %12, label %_ZN2cveqIdEEbRKNS_7Scalar_IT_EES5_.exit

12:                                               ; preds = %6
  %13 = getelementptr inbounds nuw i8, ptr %0, i64 16
  %14 = load double, ptr %13, align 8, !tbaa !11
  %15 = getelementptr inbounds nuw i8, ptr %1, i64 16
  %16 = load double, ptr %15, align 8, !tbaa !11
  %17 = fcmp oeq double %14, %16
  br i1 %17, label %18, label %_ZN2cveqIdEEbRKNS_7Scalar_IT_EES5_.exit

18:                                               ; preds = %12
  %19 = getelementptr inbounds nuw i8, ptr %0, i64 24
  %20 = load double, ptr %19, align 8, !tbaa !11
  %21 = getelementptr inbounds nuw i8, ptr %1, i64 24
  %22 = load double, ptr %21, align 8, !tbaa !11
  %23 = fcmp oeq double %20, %22
  br i1 %23, label %24, label %_ZN2cveqIdEEbRKNS_7Scalar_IT_EES5_.exit

24:                                               ; preds = %18
  %25 = getelementptr inbounds nuw i8, ptr %0, i64 32
  %26 = load double, ptr %25, align 8, !tbaa !11
  %27 = getelementptr inbounds nuw i8, ptr %1, i64 32
  %28 = load double, ptr %27, align 8, !tbaa !11
  %29 = fcmp oeq double %26, %28
  br label %_ZN2cveqIdEEbRKNS_7Scalar_IT_EES5_.exit

_ZN2cveqIdEEbRKNS_7Scalar_IT_EES5_.exit:          ; preds = %24, %18, %12, %6, %2
  %30 = phi i1 [ false, %2 ], [ false, %18 ], [ false, %12 ], [ false, %6 ], [ %29, %24 ]
  ret i1 %30
}